; ModuleID = '10/214.c'
source_filename = "10/214.c"
target datalayout = "e-m:e-p270:32:32-p271:32:32-p272:64:64-i64:64-f80:128-n8:16:32:64-S128"
target triple = "x86_64-pc-linux-gnu"

@.str = private unnamed_addr constant [3 x i8] c"%d\00", align 1

; Function Attrs: noinline nounwind uwtable
define dso_local i32 @max(i32* %0, i32 %1, i32 %2) #0 {
  %4 = alloca i32*, align 8
  %5 = alloca i32, align 4
  %6 = alloca i32, align 4
  %7 = alloca i32, align 4
  %8 = alloca i32, align 4
  %9 = alloca i32, align 4
  store i32* %0, i32** %4, align 8
  store i32 %1, i32* %5, align 4
  store i32 %2, i32* %6, align 4
  %10 = load i32, i32* %5, align 4
  %11 = icmp eq i32 %10, 1
  br i1 %11, label %12, label %20

12:                                               ; preds = %3
  %13 = load i32*, i32** %4, align 8
  %14 = load i32, i32* %13, align 4
  %15 = load i32, i32* %6, align 4
  %16 = icmp sle i32 %14, %15
  br i1 %16, label %17, label %18

17:                                               ; preds = %12
  store i32 1, i32* %7, align 4
  br label %19

18:                                               ; preds = %12
  store i32 0, i32* %7, align 4
  br label %19

19:                                               ; preds = %18, %17
  br label %48

20:                                               ; preds = %3
  %21 = load i32*, i32** %4, align 8
  %22 = getelementptr inbounds i32, i32* %21, i64 1
  %23 = load i32, i32* %5, align 4
  %24 = sub nsw i32 %23, 1
  %25 = load i32*, i32** %4, align 8
  %26 = load i32, i32* %25, align 4
  %27 = call i32 @max(i32* %22, i32 %24, i32 %26)
  %28 = add nsw i32 %27, 1
  store i32 %28, i32* %8, align 4
  %29 = load i32*, i32** %4, align 8
  %30 = getelementptr inbounds i32, i32* %29, i64 1
  %31 = load i32, i32* %5, align 4
  %32 = sub nsw i32 %31, 1
  %33 = load i32, i32* %6, align 4
  %34 = call i32 @max(i32* %30, i32 %32, i32 %33)
  store i32 %34, i32* %9, align 4
  %35 = load i32*, i32** %4, align 8
  %36 = load i32, i32* %35, align 4
  %37 = load i32, i32* %6, align 4
  %38 = icmp sle i32 %36, %37
  br i1 %38, label %39, label %45

39:                                               ; preds = %20
  %40 = load i32, i32* %8, align 4
  %41 = load i32, i32* %9, align 4
  %42 = icmp sge i32 %40, %41
  br i1 %42, label %43, label %45

43:                                               ; preds = %39
  %44 = load i32, i32* %8, align 4
  store i32 %44, i32* %7, align 4
  br label %47

45:                                               ; preds = %39, %20
  %46 = load i32, i32* %9, align 4
  store i32 %46, i32* %7, align 4
  br label %47

47:                                               ; preds = %45, %43
  br label %48

48:                                               ; preds = %47, %19
  %49 = load i32, i32* %7, align 4
  ret i32 %49
}

; Function Attrs: noinline nounwind uwtable
define dso_local void @main() #0 {
  %1 = alloca [100 x i32], align 16
  %2 = alloca i32, align 4
  %3 = alloca i32, align 4
  %4 = alloca i32, align 4
  %5 = alloca i32, align 4
  store i32 100000, i32* %4, align 4
  %6 = call i32 (i8*, ...) @__isoc99_scanf(i8* getelementptr inbounds ([3 x i8], [3 x i8]* @.str, i64 0, i64 0), i32* %2)
  store i32 0, i32* %3, align 4
  br label %7

7:                                                ; preds = %16, %0
  %8 = load i32, i32* %3, align 4
  %9 = load i32, i32* %2, align 4
  %10 = icmp slt i32 %8, %9
  br i1 %10, label %11, label %19

11:                                               ; preds = %7
  %12 = load i32, i32* %3, align 4
  %13 = sext i32 %12 to i64
  %14 = getelementptr inbounds [100 x i32], [100 x i32]* %1, i64 0, i64 %13
  %15 = call i32 (i8*, ...) @__isoc99_scanf(i8* getelementptr inbounds ([3 x i8], [3 x i8]* @.str, i64 0, i64 0), i32* %14)
  br label %16

16:                                               ; preds = %11
  %17 = load i32, i32* %3, align 4
  %18 = add nsw i32 %17, 1
  store i32 %18, i32* %3, align 4
  br label %7

19:                                               ; preds = %7
  %20 = getelementptr inbounds [100 x i32], [100 x i32]* %1, i64 0, i64 0
  %21 = load i32, i32* %2, align 4
  %22 = load i32, i32* %4, align 4
  %23 = call i32 @max(i32* %20, i32 %21, i32 %22)
  store i32 %23, i32* %5, align 4
  %24 = load i32, i32* %5, align 4
  %25 = call i32 (i8*, ...) @printf(i8* getelementptr inbounds ([3 x i8], [3 x i8]* @.str, i64 0, i64 0), i32 %24)
  ret void
}

declare dso_local i32 @__isoc99_scanf(i8*, ...) #1

declare dso_local i32 @printf(i8*, ...) #1


!llvm.module.flags = !{!0}
!llvm.ident = !{!1}

!0 = !{i32 1, !"wchar_size", i32 4}
!1 = !{!"clang version 10.0.0-4ubuntu1 "}
