; ModuleID = 'source-C-CXX/9/214.c'
source_filename = "source-C-CXX/9/214.c"
target datalayout = "e-m:e-p270:32:32-p271:32:32-p272:64:64-i64:64-f80:128-n8:16:32:64-S128"
target triple = "x86_64-pc-linux-gnu"

@.str = private unnamed_addr constant [3 x i8] c"%d\00", align 1

; Function Attrs: nofree nosync nounwind readonly sspstrong uwtable
define dso_local i32 @max(i32* %0, i32 %1, i32 %2) local_unnamed_addr #0 {
  %4 = icmp eq i32 %1, 1
  br i1 %4, label %5, label %11

5:                                                ; preds = %3
  %6 = load i32, i32* %0, align 4, !tbaa !5
  %7 = icmp sle i32 %6, %2
  %8 = zext i1 %7 to i32
  br label %9

9:                                                ; preds = %5, %11
  %10 = phi i32 [ %21, %11 ], [ %8, %5 ]
  ret i32 %10

11:                                               ; preds = %3
  %12 = getelementptr inbounds i32, i32* %0, i64 1
  %13 = add nsw i32 %1, -1
  %14 = load i32, i32* %0, align 4, !tbaa !5
  %15 = tail call i32 @max(i32* nonnull %12, i32 %13, i32 %14)
  %16 = add nsw i32 %15, 1
  %17 = tail call i32 @max(i32* nonnull %12, i32 %13, i32 %2)
  %18 = icmp sgt i32 %14, %2
  %19 = icmp slt i32 %16, %17
  %20 = select i1 %18, i1 true, i1 %19
  %21 = select i1 %20, i32 %17, i32 %16
  br label %9
}

; Function Attrs: argmemonly mustprogress nofree nosync nounwind willreturn
declare void @llvm.lifetime.start.p0i8(i64 immarg, i8* nocapture) #1

; Function Attrs: argmemonly mustprogress nofree nosync nounwind willreturn
declare void @llvm.lifetime.end.p0i8(i64 immarg, i8* nocapture) #1

; Function Attrs: nofree nounwind sspstrong uwtable
define dso_local void @main() local_unnamed_addr #2 {
  %1 = alloca [100 x i32], align 16
  %2 = alloca i32, align 4
  %3 = bitcast [100 x i32]* %1 to i8*
  call void @llvm.lifetime.start.p0i8(i64 400, i8* nonnull %3) #4
  %4 = bitcast i32* %2 to i8*
  call void @llvm.lifetime.start.p0i8(i64 4, i8* nonnull %4) #4
  %5 = call i32 (i8*, ...) @__isoc99_scanf(i8* getelementptr inbounds ([3 x i8], [3 x i8]* @.str, i64 0, i64 0), i32* nonnull %2)
  %6 = load i32, i32* %2, align 4, !tbaa !5
  %7 = icmp sgt i32 %6, 0
  br i1 %7, label %8, label %16

8:                                                ; preds = %0, %8
  %9 = phi i64 [ %12, %8 ], [ 0, %0 ]
  %10 = getelementptr inbounds [100 x i32], [100 x i32]* %1, i64 0, i64 %9
  %11 = call i32 (i8*, ...) @__isoc99_scanf(i8* getelementptr inbounds ([3 x i8], [3 x i8]* @.str, i64 0, i64 0), i32* nonnull %10)
  %12 = add nuw nsw i64 %9, 1
  %13 = load i32, i32* %2, align 4, !tbaa !5
  %14 = sext i32 %13 to i64
  %15 = icmp slt i64 %12, %14
  br i1 %15, label %8, label %16, !llvm.loop !9

16:                                               ; preds = %8, %0
  %17 = phi i32 [ %6, %0 ], [ %13, %8 ]
  %18 = getelementptr inbounds [100 x i32], [100 x i32]* %1, i64 0, i64 0
  %19 = call i32 @max(i32* nonnull %18, i32 %17, i32 100000)
  %20 = call i32 (i8*, ...) @printf(i8* nonnull dereferenceable(1) getelementptr inbounds ([3 x i8], [3 x i8]* @.str, i64 0, i64 0), i32 %19)
  call void @llvm.lifetime.end.p0i8(i64 4, i8* nonnull %4) #4
  call void @llvm.lifetime.end.p0i8(i64 400, i8* nonnull %3) #4
  ret void
}

; Function Attrs: nofree nounwind
declare noundef i32 @__isoc99_scanf(i8* nocapture noundef readonly, ...) local_unnamed_addr #3

; Function Attrs: nofree nounwind
declare noundef i32 @printf(i8* nocapture noundef readonly, ...) local_unnamed_addr #3


!llvm.module.flags = !{!0, !1, !2, !3}
!llvm.ident = !{!4}

!0 = !{i32 1, !"wchar_size", i32 4}
!1 = !{i32 7, !"PIC Level", i32 2}
!2 = !{i32 7, !"PIE Level", i32 2}
!3 = !{i32 7, !"uwtable", i32 1}
!4 = !{!"clang version 13.0.0"}
!5 = !{!6, !6, i64 0}
!6 = !{!"int", !7, i64 0}
!7 = !{!"omnipotent char", !8, i64 0}
!8 = !{!"Simple C/C++ TBAA"}
!9 = distinct !{!9, !10}
!10 = !{!"llvm.loop.mustprogress"}
